Certificate:
    Data:
        Version: 3 (0x2)
        Serial Number: 0 (0x0)
        Signature Algorithm: sha256WithRSAEncryption
        Issuer: C=JP, ST=Tokyo, O=TDSL, OU=SRD_Swkai, CN=QKD-DEV-CA
        Validity
            Not Before: Nov  8 09:46:51 2022 GMT
            Not After : Nov  7 09:46:51 2052 GMT
        Subject: C=JP, ST=Tokyo, O=TDSL, OU=SRD_Swkai, CN=QKD-DEV-CA
        Subject Public Key Info:
            Public Key Algorithm: rsaEncryption
                RSA Public-Key: (4096 bit)
                Modulus:
                    00:cc:92:02:db:ba:d4:94:03:a2:28:8e:bb:03:75:
                    4e:21:93:1c:0e:7b:b5:91:75:ed:43:0a:31:39:9f:
                    b1:f9:b9:0f:e2:a2:ee:de:80:96:c2:95:6a:0c:f9:
                    40:a7:76:da:da:ab:08:61:9c:28:02:5e:89:1d:22:
                    40:f1:01:ba:ed:43:4e:45:c7:7e:89:a0:53:76:9e:
                    f3:a9:e4:91:9f:81:4b:1d:10:9c:9b:9a:9c:0e:be:
                    90:f6:b1:d1:fc:c8:bc:f7:5e:33:8c:ab:e8:87:2c:
                    92:a1:0d:1b:b3:e8:c8:fb:05:eb:ea:a3:a6:4c:42:
                    47:b4:fb:e0:e9:4d:07:02:e4:2d:90:40:ef:11:4c:
                    96:2b:92:fe:3f:9f:15:60:56:a6:f7:a8:85:35:f3:
                    48:8e:d6:a4:09:0b:f4:f3:9a:06:0a:a1:01:ba:13:
                    f0:99:54:c2:95:6c:8b:e8:38:34:5c:63:2d:98:ac:
                    b5:3c:51:94:ea:19:ca:9d:2d:6a:04:ba:09:f1:4c:
                    03:11:97:af:62:bf:93:fd:b2:b6:2f:67:5c:8c:64:
                    0b:3b:92:40:d6:41:18:82:81:f8:25:43:85:48:94:
                    23:8a:ed:87:37:90:6d:38:f0:99:65:38:21:8e:60:
                    1d:49:9d:9f:f6:67:0c:1f:4e:8f:a9:2e:f0:84:97:
                    41:6c:5a:d8:dd:57:5a:ea:c4:44:b5:19:b9:dc:fe:
                    71:56:98:a6:9f:41:85:01:ff:da:a6:72:1d:4d:85:
                    e5:23:0a:28:fc:6e:32:85:0a:3f:f0:2a:24:b3:5c:
                    e1:8d:fa:9d:79:1e:19:26:07:2e:08:ae:f0:bd:fb:
                    77:bb:6a:b6:16:2d:34:b9:4e:1d:02:7e:a7:89:c6:
                    50:e0:23:0d:ad:8d:2b:1c:2c:50:cc:25:42:34:a2:
                    4b:cb:86:2a:3d:6c:d6:bf:5f:05:d4:c9:86:3f:c0:
                    ba:d7:b6:9a:84:90:aa:7a:24:f9:79:29:25:59:1d:
                    d2:66:ae:63:79:ea:20:d5:12:83:97:ee:04:81:02:
                    fa:aa:16:be:86:ac:0e:ce:52:03:3c:ec:6e:a2:57:
                    c0:89:5d:af:e8:3e:db:8c:ec:53:09:99:0f:4e:53:
                    fb:c9:b3:27:10:31:b9:95:ba:c8:a6:d5:46:6b:10:
                    97:2a:9b:91:48:1e:64:fa:fa:48:8e:0f:26:d0:f7:
                    04:30:84:3a:92:66:6b:92:88:4a:8c:8b:e4:0a:08:
                    d1:d0:dd:26:1a:3c:d4:d2:85:e4:29:1b:bf:0d:12:
                    17:2b:d5:2a:37:28:5c:01:7d:54:c2:42:e5:96:88:
                    0c:59:51:5a:eb:86:4c:cb:1f:67:2c:12:7b:25:27:
                    1f:9e:6b
                Exponent: 65537 (0x10001)
        X509v3 extensions:
            X509v3 Subject Key Identifier: 
                D5:C8:4E:0F:B2:F9:42:18:07:96:3F:CB:39:6D:75:6A:00:E6:4D:33
            X509v3 Authority Key Identifier: 
                keyid:D5:C8:4E:0F:B2:F9:42:18:07:96:3F:CB:39:6D:75:6A:00:E6:4D:33

            X509v3 Basic Constraints: critical
                CA:TRUE
            Netscape Cert Type: 
                SSL CA, S/MIME CA
    Signature Algorithm: sha256WithRSAEncryption
         9f:10:99:7c:f5:11:fe:a1:64:4c:18:5f:0b:31:2f:39:60:36:
         6c:f0:44:41:18:5d:8b:5c:26:93:1c:5a:06:2f:da:a3:88:40:
         c1:e4:0d:ce:74:11:55:f6:51:ea:03:27:bc:07:d6:ea:7e:c6:
         d6:7d:8f:7e:0c:58:5c:13:95:8c:3a:4b:28:9a:a4:99:f5:33:
         47:96:29:a9:f1:b8:64:eb:e1:7a:16:d9:ba:da:ad:ec:9c:e5:
         ac:20:b2:7f:a0:44:82:f6:d6:ea:4a:eb:92:0b:94:da:be:61:
         12:dd:b3:42:33:88:2f:96:c0:8c:b4:41:58:63:fe:45:1c:82:
         29:71:81:71:9d:e5:82:5d:10:dc:86:f1:61:02:b9:72:a1:42:
         f3:03:e6:c2:77:d3:df:81:e4:ee:fe:f6:ef:43:e7:6b:f4:1a:
         5c:42:bb:d2:7a:ad:a6:c9:42:36:92:ff:0d:d0:41:68:f8:39:
         7a:fb:1e:a3:fe:09:b9:38:ad:f2:da:83:55:c2:71:24:10:cb:
         0b:a1:1a:bd:10:e4:2b:d2:89:59:c6:e8:32:95:d5:c1:26:bc:
         c6:99:25:6c:fc:dd:03:89:e8:3b:19:9f:43:d8:ed:0b:95:6e:
         59:74:35:12:a7:88:1e:7b:d4:01:ce:ed:6b:c0:35:c4:7b:f6:
         17:3c:7a:55:32:bf:f7:25:7c:ab:dc:c5:bc:0e:c4:e9:6a:2a:
         53:a2:ea:e6:d9:2a:62:51:8d:18:b2:a9:c2:47:9d:37:af:e4:
         e2:34:62:f2:84:b4:fb:06:cc:47:66:56:2e:92:7c:c2:c8:2b:
         10:ee:06:dc:b2:20:21:6c:ac:86:9e:04:fb:d2:0c:48:3e:f0:
         94:f5:aa:a1:82:da:e3:c2:b1:3a:4a:88:0f:82:57:4b:ba:2a:
         1d:d6:53:b9:ea:de:cc:2c:ee:8e:1b:75:e7:90:cc:44:ef:61:
         0e:b7:16:47:3c:18:f1:f8:c9:03:fe:0f:6a:5f:95:75:98:9c:
         af:79:cc:ac:3e:21:d1:d2:9d:f8:f6:7a:fe:2a:1e:4c:e9:84:
         49:b8:ba:39:c8:ce:e9:42:5d:10:37:e6:29:38:e6:d2:d0:e8:
         e2:f1:da:a1:8d:0d:38:c2:a9:47:f7:51:24:46:48:1e:fe:23:
         f7:02:d3:8f:f1:53:ab:ae:17:57:8a:2e:96:38:d4:d6:0c:7c:
         6e:cd:5a:fe:88:b0:70:de:99:98:47:27:37:85:98:28:bd:25:
         33:ba:a6:94:fa:eb:a4:52:70:16:24:4d:0e:e2:a1:68:dd:1d:
         cd:de:dd:be:a2:ff:f3:b9:dc:6e:0a:26:20:23:d8:e0:1b:2b:
         db:d2:f9:e2:26:28:ec:2c
-----BEGIN CERTIFICATE-----
MIIFjTCCA3WgAwIBAgIBADANBgkqhkiG9w0BAQsFADBVMQswCQYDVQQGEwJKUDEO
MAwGA1UECAwFVG9reW8xDTALBgNVBAoMBFREU0wxEjAQBgNVBAsMCVNSRF9Td2th
aTETMBEGA1UEAwwKUUtELURFVi1DQTAgFw0yMjExMDgwOTQ2NTFaGA8yMDUyMTEw
NzA5NDY1MVowVTELMAkGA1UEBhMCSlAxDjAMBgNVBAgMBVRva3lvMQ0wCwYDVQQK
DARURFNMMRIwEAYDVQQLDAlTUkRfU3drYWkxEzARBgNVBAMMClFLRC1ERVYtQ0Ew
ggIiMA0GCSqGSIb3DQEBAQUAA4ICDwAwggIKAoICAQDMkgLbutSUA6IojrsDdU4h
kxwOe7WRde1DCjE5n7H5uQ/iou7egJbClWoM+UCndtraqwhhnCgCXokdIkDxAbrt
Q05Fx36JoFN2nvOp5JGfgUsdEJybmpwOvpD2sdH8yLz3XjOMq+iHLJKhDRuz6Mj7
Bevqo6ZMQke0++DpTQcC5C2QQO8RTJYrkv4/nxVgVqb3qIU180iO1qQJC/TzmgYK
oQG6E/CZVMKVbIvoODRcYy2YrLU8UZTqGcqdLWoEugnxTAMRl69iv5P9srYvZ1yM
ZAs7kkDWQRiCgfglQ4VIlCOK7Yc3kG048JllOCGOYB1JnZ/2ZwwfTo+pLvCEl0Fs
WtjdV1rqxES1Gbnc/nFWmKafQYUB/9qmch1NheUjCij8bjKFCj/wKiSzXOGN+p15
HhkmBy4IrvC9+3e7arYWLTS5Th0CfqeJxlDgIw2tjSscLFDMJUI0okvLhio9bNa/
XwXUyYY/wLrXtpqEkKp6JPl5KSVZHdJmrmN56iDVEoOX7gSBAvqqFr6GrA7OUgM8
7G6iV8CJXa/oPtuM7FMJmQ9OU/vJsycQMbmVusim1UZrEJcqm5FIHmT6+kiODybQ
9wQwhDqSZmuSiEqMi+QKCNHQ3SYaPNTSheQpG78NEhcr1So3KFwBfVTCQuWWiAxZ
UVrrhkzLH2csEnslJx+eawIDAQABo2YwZDAdBgNVHQ4EFgQU1chOD7L5QhgHlj/L
OW11agDmTTMwHwYDVR0jBBgwFoAU1chOD7L5QhgHlj/LOW11agDmTTMwDwYDVR0T
AQH/BAUwAwEB/zARBglghkgBhvhCAQEEBAMCAQYwDQYJKoZIhvcNAQELBQADggIB
AJ8QmXz1Ef6hZEwYXwsxLzlgNmzwREEYXYtcJpMcWgYv2qOIQMHkDc50EVX2UeoD
J7wH1up+xtZ9j34MWFwTlYw6SyiapJn1M0eWKanxuGTr4XoW2brareyc5awgsn+g
RIL21upK65ILlNq+YRLds0IziC+WwIy0QVhj/kUcgilxgXGd5YJdENyG8WECuXKh
QvMD5sJ309+B5O7+9u9D52v0GlxCu9J6rabJQjaS/w3QQWj4OXr7HqP+Cbk4rfLa
g1XCcSQQywuhGr0Q5CvSiVnG6DKV1cEmvMaZJWz83QOJ6DsZn0PY7QuVbll0NRKn
iB571AHO7WvANcR79hc8elUyv/clfKvcxbwOxOlqKlOi6ubZKmJRjRiyqcJHnTev
5OI0YvKEtPsGzEdmVi6SfMLIKxDuBtyyICFsrIaeBPvSDEg+8JT1qqGC2uPCsTpK
iA+CV0u6Kh3WU7nq3sws7o4bdeeQzETvYQ63Fkc8GPH4yQP+D2pflXWYnK95zKw+
IdHSnfj2ev4qHkzphEm4ujnIzulCXRA35ik45tLQ6OLx2qGNDTjCqUf3USRGSB7+
I/cC04/xU6uuF1eKLpY41NYMfG7NWv6IsHDemZhHJzeFmCi9JTO6ppT666RScBYk
TQ7ioWjdHc3e3b6i//O53G4KJiAj2OAbK9vS+eImKOws
-----END CERTIFICATE-----
