Certificate:
    Data:
        Version: 3 (0x2)
        Serial Number: 13 (0xd)
        Signature Algorithm: sha256WithRSAEncryption
        Issuer: C=JP, ST=Tokyo, O=TDSL, OU=SRD_Swkai, CN=QKD-DEV-CA
        Validity
            Not Before: Apr  5 09:07:58 2024 GMT
            Not After : Apr  5 09:07:58 2027 GMT
        Subject: C=JP, ST=Tokyo, O=TDSL, OU=QKD, CN=SA00000006
        Subject Public Key Info:
            Public Key Algorithm: rsaEncryption
                Public-Key: (4096 bit)
                Modulus:
                    00:c3:05:c6:40:c9:26:bf:63:47:90:dd:0b:7e:a0:
                    1e:55:b4:33:bc:36:57:4c:70:09:71:98:e7:63:30:
                    4a:6e:72:40:7d:ea:3d:dc:d9:0f:d3:37:25:c3:98:
                    ae:da:f0:9b:f9:0b:7c:9f:bd:18:6b:28:3b:27:90:
                    cd:b5:ec:dd:80:af:98:f5:a1:de:4e:e7:fd:90:0a:
                    00:ad:cc:09:76:49:61:ab:ee:3e:0f:28:6d:89:a8:
                    7a:de:af:e4:4f:7f:18:bf:e1:68:a9:77:f7:8a:2f:
                    e0:ba:58:e9:a4:54:0b:40:5e:9c:79:91:1d:06:86:
                    c9:52:2f:98:2a:77:0a:44:d3:de:67:7f:e4:65:f9:
                    5c:68:75:37:a8:07:a6:66:87:8a:4b:36:e7:92:e0:
                    f4:38:f8:90:f9:e0:61:6c:6f:aa:41:6c:5e:e9:7c:
                    d9:08:9c:1f:78:4b:fe:40:84:13:ad:ca:4c:d8:76:
                    a5:8d:5c:f2:bf:73:ea:d8:db:de:db:fa:ae:5e:f5:
                    be:81:58:d7:7e:58:26:62:ff:c5:2d:29:c4:39:d6:
                    07:bb:c8:2b:41:93:ac:a0:3a:3b:d3:9b:58:51:46:
                    5f:38:cc:5a:4f:87:57:d5:02:f7:ae:f4:94:21:67:
                    12:90:17:f2:82:86:88:83:eb:68:3f:54:b5:d7:21:
                    80:71:03:ca:0f:c4:1c:07:d0:1d:0c:9f:76:85:83:
                    ff:40:87:aa:69:aa:a5:9d:5b:9c:3d:25:19:77:66:
                    d8:cb:10:be:0c:5d:de:0a:30:09:cd:7f:52:d9:e7:
                    ec:b5:61:e4:2c:33:29:f7:fe:ac:07:1e:df:f7:e1:
                    6a:45:11:f6:d7:d5:4a:3b:02:86:2b:e2:22:b8:ed:
                    75:56:66:b3:9e:32:94:68:aa:96:5b:7b:4c:86:1b:
                    cc:12:1b:23:7c:6d:e3:f7:fc:64:98:cb:6f:83:58:
                    04:d0:83:51:8b:6b:db:3a:5d:87:d4:a1:06:fa:ab:
                    a5:f4:d2:40:71:3a:3b:ba:db:45:68:9b:68:b8:b9:
                    f8:08:b2:4d:4b:5e:ae:bc:11:e5:0c:ba:3f:58:3e:
                    ea:a0:e9:49:73:f2:e2:37:e6:63:f8:01:75:b1:da:
                    44:5b:8f:2a:a0:81:41:8e:87:e9:60:52:c4:c0:55:
                    2e:f6:e1:2c:3d:f3:b0:0f:a6:03:6b:63:43:40:5d:
                    ff:89:5c:bc:b5:bf:f6:08:f4:7d:fd:7b:8d:4d:1f:
                    40:98:b8:95:32:98:07:74:ef:a6:b0:0b:8c:7f:69:
                    7e:18:9e:83:b3:f1:6e:4f:b8:09:94:d9:23:59:c2:
                    03:96:44:c0:5e:b6:d4:5d:2d:47:37:37:ed:65:69:
                    68:fe:d5
                Exponent: 65537 (0x10001)
        X509v3 extensions:
            X509v3 Subject Alternative Name: 
                DNS:SA00000006
            X509v3 Key Usage: 
                Digital Signature, Non Repudiation, Key Encipherment
            X509v3 Extended Key Usage: 
                TLS Web Server Authentication, TLS Web Client Authentication
            X509v3 Subject Key Identifier: 
                C9:02:81:26:43:CE:90:56:66:9C:D2:92:58:FA:F4:06:9F:8E:74:F8
            X509v3 Authority Key Identifier: 
                D5:C8:4E:0F:B2:F9:42:18:07:96:3F:CB:39:6D:75:6A:00:E6:4D:33
    Signature Algorithm: sha256WithRSAEncryption
    Signature Value:
        83:db:5b:d0:2c:77:20:07:5f:2c:e1:96:41:64:4a:67:f7:7c:
        6d:f7:63:5e:3c:17:b7:02:46:4c:b4:cd:22:e9:84:1c:4d:69:
        8c:37:2e:d8:c4:82:0e:8c:ca:4d:cc:39:8c:95:b4:eb:0a:fc:
        33:00:2b:96:6c:82:a4:1f:d3:6b:da:9b:be:cc:dd:34:37:4e:
        44:de:1b:dc:f9:e8:1d:c6:f0:9a:eb:5f:51:b9:ce:3e:10:8c:
        4a:cb:6a:98:f2:b3:63:e8:91:4b:85:78:cd:00:01:69:09:56:
        77:e1:79:4e:fa:f1:c0:b9:ff:ea:cd:db:ad:5c:c5:58:be:57:
        f8:d0:bf:2f:73:11:50:9c:4a:1a:ae:4f:0f:07:f6:29:72:52:
        48:60:75:94:24:17:2e:32:bd:1d:e1:cb:fc:96:0f:54:be:d2:
        14:66:98:f0:6d:de:ed:ee:59:f8:56:4b:dd:91:40:e8:b1:cc:
        f2:be:81:ca:d4:e3:b8:55:19:ba:d6:fd:e4:4b:0b:1e:4c:41:
        ec:47:65:1a:9e:89:7e:f3:b4:2c:9f:a6:a7:1f:1e:6c:46:3c:
        66:5b:3b:29:7c:f2:a5:74:9a:6d:b1:5e:4b:c0:fe:5e:3a:64:
        9c:75:ce:4f:29:8b:b8:d3:01:71:b4:26:19:a5:e3:47:54:f8:
        a7:fe:f4:bf:49:74:4d:4d:b0:9e:12:b7:6e:df:9c:09:9d:f0:
        60:8b:be:8f:17:a0:12:f6:fb:6c:83:fb:a7:e1:60:fa:a3:4c:
        7a:47:9b:0d:5b:af:62:af:07:e5:ee:d1:4f:ff:9f:99:2c:8c:
        2e:94:50:42:46:87:7d:f4:3d:59:00:51:ea:f8:29:61:ca:b7:
        a9:c5:9b:74:8d:12:70:40:37:cd:fb:56:d1:81:36:c7:39:c7:
        11:59:1c:3b:77:0a:f7:51:d7:36:62:de:db:cb:18:0f:b8:a6:
        73:00:fb:d5:99:47:33:b5:bb:66:85:37:4d:f6:52:0e:7a:bc:
        3b:93:25:0e:88:d5:37:72:94:e7:bf:51:31:20:13:e6:d3:c7:
        54:ab:de:41:3a:20:1a:02:e1:87:87:ea:81:cd:ca:33:51:91:
        5b:3c:04:b0:a1:45:4c:53:4a:b5:e4:83:c8:0f:2e:72:58:b1:
        eb:17:a3:4c:09:07:69:21:b8:c2:31:f4:39:cf:91:be:eb:c6:
        c4:3b:8b:2f:9a:9f:e4:8a:56:42:15:6f:ca:03:26:e5:67:d1:
        c4:c2:d5:64:8a:15:0a:3b:90:06:4e:df:c3:9f:41:8f:59:9e:
        aa:c0:37:37:28:19:fe:2c:1b:54:97:b0:b2:2a:c7:00:6a:a1:
        44:b6:94:45:db:dd:45:00
-----BEGIN CERTIFICATE-----
MIIFpjCCA46gAwIBAgIBDTANBgkqhkiG9w0BAQsFADBVMQswCQYDVQQGEwJKUDEO
MAwGA1UECAwFVG9reW8xDTALBgNVBAoMBFREU0wxEjAQBgNVBAsMCVNSRF9Td2th
aTETMBEGA1UEAwwKUUtELURFVi1DQTAeFw0yNDA0MDUwOTA3NThaFw0yNzA0MDUw
OTA3NThaME8xCzAJBgNVBAYTAkpQMQ4wDAYDVQQIDAVUb2t5bzENMAsGA1UECgwE
VERTTDEMMAoGA1UECwwDUUtEMRMwEQYDVQQDDApTQTAwMDAwMDA2MIICIjANBgkq
hkiG9w0BAQEFAAOCAg8AMIICCgKCAgEAwwXGQMkmv2NHkN0LfqAeVbQzvDZXTHAJ
cZjnYzBKbnJAfeo93NkP0zclw5iu2vCb+Qt8n70Yayg7J5DNtezdgK+Y9aHeTuf9
kAoArcwJdklhq+4+Dyhtiah63q/kT38Yv+FoqXf3ii/guljppFQLQF6ceZEdBobJ
Ui+YKncKRNPeZ3/kZflcaHU3qAemZoeKSzbnkuD0OPiQ+eBhbG+qQWxe6XzZCJwf
eEv+QIQTrcpM2HaljVzyv3Pq2Nve2/quXvW+gVjXflgmYv/FLSnEOdYHu8grQZOs
oDo705tYUUZfOMxaT4dX1QL3rvSUIWcSkBfygoaIg+toP1S11yGAcQPKD8QcB9Ad
DJ92hYP/QIeqaaqlnVucPSUZd2bYyxC+DF3eCjAJzX9S2efstWHkLDMp9/6sBx7f
9+FqRRH219VKOwKGK+IiuO11VmaznjKUaKqWW3tMhhvMEhsjfG3j9/xkmMtvg1gE
0INRi2vbOl2H1KEG+qul9NJAcTo7uttFaJtouLn4CLJNS16uvBHlDLo/WD7qoOlJ
c/LiN+Zj+AF1sdpEW48qoIFBjofpYFLEwFUu9uEsPfOwD6YDa2NDQF3/iVy8tb/2
CPR9/XuNTR9AmLiVMpgHdO+msAuMf2l+GJ6Ds/FuT7gJlNkjWcIDlkTAXrbUXS1H
NzftZWlo/tUCAwEAAaOBhjCBgzAVBgNVHREEDjAMggpTQTAwMDAwMDA2MAsGA1Ud
DwQEAwIF4DAdBgNVHSUEFjAUBggrBgEFBQcDAQYIKwYBBQUHAwIwHQYDVR0OBBYE
FMkCgSZDzpBWZpzSklj69AafjnT4MB8GA1UdIwQYMBaAFNXITg+y+UIYB5Y/yzlt
dWoA5k0zMA0GCSqGSIb3DQEBCwUAA4ICAQCD21vQLHcgB18s4ZZBZEpn93xt92Ne
PBe3AkZMtM0i6YQcTWmMNy7YxIIOjMpNzDmMlbTrCvwzACuWbIKkH9Nr2pu+zN00
N05E3hvc+egdxvCa619Ruc4+EIxKy2qY8rNj6JFLhXjNAAFpCVZ34XlO+vHAuf/q
zdutXMVYvlf40L8vcxFQnEoark8PB/YpclJIYHWUJBcuMr0d4cv8lg9UvtIUZpjw
bd7t7ln4VkvdkUDosczyvoHK1OO4VRm61v3kSwseTEHsR2Uanol+87Qsn6anHx5s
RjxmWzspfPKldJptsV5LwP5eOmScdc5PKYu40wFxtCYZpeNHVPin/vS/SXRNTbCe
Erdu35wJnfBgi76PF6AS9vtsg/un4WD6o0x6R5sNW69irwfl7tFP/5+ZLIwulFBC
Rod99D1ZAFHq+ClhyrepxZt0jRJwQDfN+1bRgTbHOccRWRw7dwr3Udc2Yt7byxgP
uKZzAPvVmUcztbtmhTdN9lIOerw7kyUOiNU3cpTnv1ExIBPm08dUq95BOiAaAuGH
h+qBzcozUZFbPASwoUVMU0q15IPIDy5yWLHrF6NMCQdpIbjCMfQ5z5G+68bEO4sv
mp/kilZCFW/KAyblZ9HEwtVkihUKO5AGTt/Dn0GPWZ6qwDc3KBn+LBtUl7CyKscA
aqFEtpRF291FAA==
-----END CERTIFICATE-----
