Certificate:
    Data:
        Version: 3 (0x2)
        Serial Number: 14 (0xe)
        Signature Algorithm: sha256WithRSAEncryption
        Issuer: C=JP, ST=Tokyo, O=TDSL, OU=SRD_Swkai, CN=QKD-DEV-CA
        Validity
            Not Before: Apr  5 09:08:12 2024 GMT
            Not After : Apr  5 09:08:12 2027 GMT
        Subject: C=JP, ST=Tokyo, O=TDSL, OU=QKD, CN=SA00000007
        Subject Public Key Info:
            Public Key Algorithm: rsaEncryption
                Public-Key: (4096 bit)
                Modulus:
                    00:ba:7b:d0:4a:cb:36:6e:89:09:98:5b:51:df:12:
                    aa:93:71:5c:0e:ad:72:54:6e:a1:8d:c1:8d:92:50:
                    2c:ef:ac:2f:d6:50:6d:f2:e2:30:f3:4a:79:1a:85:
                    d1:81:0b:2c:e5:16:5c:bf:ac:22:c7:ea:5f:48:cc:
                    e9:42:59:6b:ca:33:5a:e1:70:32:2e:66:e7:1c:0c:
                    da:34:20:ec:17:9c:e6:eb:10:e8:98:b9:13:14:fe:
                    f7:56:2a:43:1f:56:b0:7d:45:43:d2:94:c0:1a:2a:
                    5e:cb:c7:3e:ad:25:f5:c7:87:c3:1a:d2:2c:e0:10:
                    1e:4a:92:a7:a9:f1:47:b5:0b:97:4c:f4:b7:05:f1:
                    51:9c:db:1c:22:53:05:4b:13:7f:c2:0d:80:cf:d9:
                    af:b4:77:3e:0f:e1:d4:ce:c5:d4:58:55:fb:c9:f8:
                    01:45:3d:be:bc:75:78:10:4f:f6:7d:a1:f3:61:1a:
                    f4:fa:c5:c3:91:bd:57:4f:0a:5f:7d:90:f2:27:04:
                    7d:f2:8a:60:3e:ae:d5:e7:52:e6:03:75:ad:ab:e2:
                    15:2f:b9:82:31:b2:cc:51:50:da:4a:fc:c1:79:38:
                    24:36:22:30:ec:9d:da:36:36:6d:cd:ca:be:ec:d1:
                    db:49:c0:86:d5:d3:b3:f4:4c:ef:49:62:7c:9d:2e:
                    92:03:27:13:9f:e3:9a:db:88:ca:7a:40:eb:f2:98:
                    a2:59:e9:94:30:8d:44:dc:fd:42:99:3f:7b:a4:29:
                    a4:e6:4a:70:d0:61:42:91:1f:7c:8e:d8:c1:48:28:
                    71:3f:25:75:e8:d8:46:a9:96:21:10:5a:23:b6:cf:
                    e7:4a:bb:83:15:bc:00:fd:9f:d7:20:6b:08:cb:97:
                    4d:e9:ac:8c:c6:6a:d9:00:09:96:5f:91:12:24:6f:
                    05:7a:cd:5a:ac:0b:68:a0:d3:3b:7a:41:ea:d3:31:
                    e4:87:c3:69:1e:27:74:d4:ed:cd:9b:2b:64:fc:5a:
                    a4:69:10:6e:36:0b:60:45:12:94:45:43:48:2c:d7:
                    4f:90:87:9d:d5:39:80:c1:70:3a:fa:b0:80:55:85:
                    2f:be:f9:25:ff:d9:ab:4b:9f:fa:b4:cc:4c:52:9b:
                    ef:33:54:92:d4:4e:fb:65:e5:5e:12:a5:72:5b:24:
                    d0:4c:99:6c:cc:1b:56:16:06:11:f9:77:43:ef:81:
                    75:49:51:e9:a0:71:30:6a:92:70:d9:c6:16:29:e3:
                    5a:d6:3f:61:5a:9b:97:5a:eb:0b:2f:01:55:16:90:
                    03:34:82:1e:65:50:1d:88:eb:c5:cf:0d:bf:9c:e9:
                    5b:53:24:d8:82:6e:af:d8:31:1c:6f:b3:eb:9c:d4:
                    46:cc:8f
                Exponent: 65537 (0x10001)
        X509v3 extensions:
            X509v3 Subject Alternative Name: 
                DNS:SA00000007
            X509v3 Key Usage: 
                Digital Signature, Non Repudiation, Key Encipherment
            X509v3 Extended Key Usage: 
                TLS Web Server Authentication, TLS Web Client Authentication
            X509v3 Subject Key Identifier: 
                3B:77:51:03:7C:43:7E:2E:19:BD:66:84:4D:68:3F:77:D6:3F:A3:DB
            X509v3 Authority Key Identifier: 
                D5:C8:4E:0F:B2:F9:42:18:07:96:3F:CB:39:6D:75:6A:00:E6:4D:33
    Signature Algorithm: sha256WithRSAEncryption
    Signature Value:
        05:ad:af:57:e7:61:1b:4a:b9:43:c5:ab:8d:e0:df:ca:2f:34:
        41:3d:93:8e:d7:27:93:bd:e0:1d:ae:15:eb:d5:85:21:db:9e:
        6d:39:9e:40:7f:5b:44:48:5b:87:d6:a5:e4:8c:8a:f2:0c:80:
        78:ea:0a:11:64:ac:14:63:95:f6:f5:77:fc:65:b1:7d:b2:a1:
        6c:83:fe:f7:3b:d9:c8:5a:af:5f:60:c4:61:1c:f1:74:34:7c:
        7e:2c:a1:ea:3c:25:ba:26:07:ba:9f:78:87:42:54:4e:d5:00:
        c4:a3:60:ab:58:f2:36:39:32:d9:68:13:56:c7:21:48:e9:90:
        0c:a3:f3:65:d1:f3:b1:f8:e8:74:88:88:cf:cd:5b:01:de:40:
        22:c7:be:f8:a1:c6:c7:0e:5f:67:3d:b6:b3:34:24:b8:2e:bf:
        61:ab:d1:ed:69:c7:80:93:c5:b3:b7:bb:97:87:9a:70:03:4b:
        24:ab:2b:d0:93:48:f9:7c:ac:a3:43:e3:0e:4e:48:7e:22:5e:
        14:a2:e9:e2:d2:22:c1:d5:34:ad:9c:f6:d1:ed:10:e5:5c:4f:
        0b:cd:bb:4b:f8:be:59:d1:bd:11:5a:2f:62:ec:2e:c5:ae:7c:
        14:f7:e4:68:22:c0:e4:98:e6:c7:4a:36:99:f7:ed:c2:72:18:
        de:5f:b5:e9:52:8f:d5:c9:d7:e7:2a:91:ff:37:cf:2c:26:18:
        3e:0f:a5:f8:14:c2:d1:14:4c:b1:42:1b:4a:20:c8:67:60:ed:
        e4:68:f5:64:ca:9e:a5:4c:9d:56:5e:13:5a:fe:a6:69:18:9f:
        22:41:20:eb:4a:c1:c8:e3:f9:cc:40:8f:ba:b3:33:de:0e:85:
        eb:81:5e:4a:a8:5f:cd:21:81:d4:42:69:3b:02:ff:e0:c8:85:
        fd:a1:39:93:28:35:9f:7f:bc:07:97:3e:94:92:4e:f7:63:dd:
        90:e1:cc:e7:57:21:27:e7:b2:e5:04:b7:0d:2d:e7:3e:ef:b5:
        af:88:f3:10:bb:5d:2a:31:0a:8c:92:03:92:c2:94:04:25:7b:
        bb:e3:01:bc:fe:72:09:ff:72:c8:3c:f2:79:77:55:1f:8c:68:
        6d:7b:5a:71:a5:ed:a1:39:9f:7b:f7:35:ba:5c:42:61:67:2f:
        60:7a:c5:36:75:e0:65:6e:eb:c8:9a:f2:fe:2c:72:b0:13:b4:
        1e:17:ba:4d:6e:3d:56:40:fe:21:1a:31:4c:28:00:fb:51:b9:
        ab:ec:80:41:35:eb:cf:53:dd:ad:72:2d:6b:fc:e3:96:5a:b0:
        cb:31:92:24:af:33:d3:b7:70:82:5e:1e:7f:81:1a:e8:ec:9f:
        94:e6:b8:2b:7d:ad:a2:91
-----BEGIN CERTIFICATE-----
MIIFpjCCA46gAwIBAgIBDjANBgkqhkiG9w0BAQsFADBVMQswCQYDVQQGEwJKUDEO
MAwGA1UECAwFVG9reW8xDTALBgNVBAoMBFREU0wxEjAQBgNVBAsMCVNSRF9Td2th
aTETMBEGA1UEAwwKUUtELURFVi1DQTAeFw0yNDA0MDUwOTA4MTJaFw0yNzA0MDUw
OTA4MTJaME8xCzAJBgNVBAYTAkpQMQ4wDAYDVQQIDAVUb2t5bzENMAsGA1UECgwE
VERTTDEMMAoGA1UECwwDUUtEMRMwEQYDVQQDDApTQTAwMDAwMDA3MIICIjANBgkq
hkiG9w0BAQEFAAOCAg8AMIICCgKCAgEAunvQSss2bokJmFtR3xKqk3FcDq1yVG6h
jcGNklAs76wv1lBt8uIw80p5GoXRgQss5RZcv6wix+pfSMzpQllryjNa4XAyLmbn
HAzaNCDsF5zm6xDomLkTFP73VipDH1awfUVD0pTAGipey8c+rSX1x4fDGtIs4BAe
SpKnqfFHtQuXTPS3BfFRnNscIlMFSxN/wg2Az9mvtHc+D+HUzsXUWFX7yfgBRT2+
vHV4EE/2faHzYRr0+sXDkb1XTwpffZDyJwR98opgPq7V51LmA3Wtq+IVL7mCMbLM
UVDaSvzBeTgkNiIw7J3aNjZtzcq+7NHbScCG1dOz9EzvSWJ8nS6SAycTn+Oa24jK
ekDr8piiWemUMI1E3P1CmT97pCmk5kpw0GFCkR98jtjBSChxPyV16NhGqZYhEFoj
ts/nSruDFbwA/Z/XIGsIy5dN6ayMxmrZAAmWX5ESJG8Fes1arAtooNM7ekHq0zHk
h8NpHid01O3Nmytk/FqkaRBuNgtgRRKURUNILNdPkIed1TmAwXA6+rCAVYUvvvkl
/9mrS5/6tMxMUpvvM1SS1E77ZeVeEqVyWyTQTJlszBtWFgYR+XdD74F1SVHpoHEw
apJw2cYWKeNa1j9hWpuXWusLLwFVFpADNIIeZVAdiOvFzw2/nOlbUyTYgm6v2DEc
b7PrnNRGzI8CAwEAAaOBhjCBgzAVBgNVHREEDjAMggpTQTAwMDAwMDA3MAsGA1Ud
DwQEAwIF4DAdBgNVHSUEFjAUBggrBgEFBQcDAQYIKwYBBQUHAwIwHQYDVR0OBBYE
FDt3UQN8Q34uGb1mhE1oP3fWP6PbMB8GA1UdIwQYMBaAFNXITg+y+UIYB5Y/yzlt
dWoA5k0zMA0GCSqGSIb3DQEBCwUAA4ICAQAFra9X52EbSrlDxauN4N/KLzRBPZOO
1yeTveAdrhXr1YUh255tOZ5Af1tESFuH1qXkjIryDIB46goRZKwUY5X29Xf8ZbF9
sqFsg/73O9nIWq9fYMRhHPF0NHx+LKHqPCW6Jge6n3iHQlRO1QDEo2CrWPI2OTLZ
aBNWxyFI6ZAMo/Nl0fOx+Oh0iIjPzVsB3kAix774ocbHDl9nPbazNCS4Lr9hq9Ht
aceAk8Wzt7uXh5pwA0skqyvQk0j5fKyjQ+MOTkh+Il4Uouni0iLB1TStnPbR7RDl
XE8LzbtL+L5Z0b0RWi9i7C7FrnwU9+RoIsDkmObHSjaZ9+3CchjeX7XpUo/Vydfn
KpH/N88sJhg+D6X4FMLRFEyxQhtKIMhnYO3kaPVkyp6lTJ1WXhNa/qZpGJ8iQSDr
SsHI4/nMQI+6szPeDoXrgV5KqF/NIYHUQmk7Av/gyIX9oTmTKDWff7wHlz6Ukk73
Y92Q4cznVyEn57LlBLcNLec+77WviPMQu10qMQqMkgOSwpQEJXu74wG8/nIJ/3LI
PPJ5d1UfjGhte1pxpe2hOZ979zW6XEJhZy9gesU2deBlbuvImvL+LHKwE7QeF7pN
bj1WQP4hGjFMKAD7Ubmr7IBBNevPU92tci1r/OOWWrDLMZIkrzPTt3CCXh5/gRro
7J+U5rgrfa2ikQ==
-----END CERTIFICATE-----
